; Function Attrs: nounwind uwtable
define dso_local zeroext i1 @relation_has_policies(ptr noundef readonly captures(none) %0) local_unnamed_addr #0 {
  %2 = alloca %struct.ScanKeyData, align 8
  call void @llvm.lifetime.start.p0(i64 72, ptr nonnull %2) #8
  %3 = tail call ptr @table_open(i32 noundef 3256, i32 noundef 1) #8
  %4 = getelementptr inbounds nuw i8, ptr %0, i64 72
  %5 = load i32, ptr %4, align 8
  %6 = zext i32 %5 to i64
  call void @ScanKeyInit(ptr noundef nonnull %2, i16 noundef signext 3, i16 noundef zeroext 3, i32 noundef 184, i64 noundef %6) #8
  %7 = call ptr @systable_beginscan(ptr noundef %3, i32 noundef 3258, i1 noundef zeroext true, ptr noundef null, i32 noundef 1, ptr noundef nonnull %2) #8
  %8 = call ptr @systable_getnext(ptr noundef %7) #8
  %.not = icmp ne ptr %8, null
  call void @systable_endscan(ptr noundef %7) #8
  call void @table_close(ptr noundef %3, i32 noundef 1) #8
  call void @llvm.lifetime.end.p0(i64 72, ptr nonnull %2) #8
  ret i1 %.not
}